target datalayout = "e-m:e-p270:32:32-p271:32:32-p272:64:64-i64:64-i128:128-f80:128-n8:16:32:64-S128"
target triple = "x86_64-pc-linux-gnu"

%struct.URLContext = type { ptr, ptr, ptr, ptr, i32, i32, i32, i32, %struct.AVIOInterruptCB, i64, ptr, ptr, i32 }
%struct.AVIOInterruptCB = type { ptr, ptr }
%struct.RTMPContext = type { ptr, ptr, [2 x ptr], [2 x i32], i32, i32, i32, ptr, i32, ptr, ptr, i32, i32, ptr, i32, i32, i32, %struct.RTMPPacket, i32, i64, i64, i32, i32, i32, i32, i32, [11 x i8], i32, i32, ptr, ptr, ptr, i32, i32, ptr, ptr, [42 x i8], ptr, ptr, i32, i32, i32, i32, ptr, i32, i32, i32, i32, i32, double, i32, ptr, [50 x i8], [50 x i8], [500 x i8], i32, i32 }
%struct.RTMPPacket = type { i32, i32, i32, i32, i32, ptr, i32, i32, i32 }

@.str.106 = private unnamed_addr constant [41 x i8] c"Too short chunk size change packet (%d)\0A\00", align 1
@.str.107 = private unnamed_addr constant [25 x i8] c"Incorrect chunk size %d\0A\00", align 1
@.str.108 = private unnamed_addr constant [30 x i8] c"New incoming chunk size = %d\0A\00", align 1

; Function Attrs: alwaysinline nounwind willreturn memory(none) uwtable
define internal i32 @av_bswap32(i32 noundef %0) #9 {
  %2 = alloca i32, align 4
  store i32 %0, ptr %2, align 4, !tbaa !11
  %3 = load i32, ptr %2, align 4, !tbaa !11
  %4 = shl i32 %3, 8
  %5 = and i32 %4, 65280
  %6 = load i32, ptr %2, align 4, !tbaa !11
  %7 = lshr i32 %6, 8
  %8 = and i32 %7, 255
  %9 = or i32 %5, %8
  %10 = shl i32 %9, 16
  %11 = load i32, ptr %2, align 4, !tbaa !11
  %12 = lshr i32 %11, 16
  %13 = shl i32 %12, 8
  %14 = and i32 %13, 65280
  %15 = load i32, ptr %2, align 4, !tbaa !11
  %16 = lshr i32 %15, 16
  %17 = lshr i32 %16, 8
  %18 = and i32 %17, 255
  %19 = or i32 %14, %18
  %20 = or i32 %10, %19
  ret i32 %20
}

; Function Attrs: nounwind uwtable
define internal i32 @handle_chunk_size(ptr noundef %0, ptr noundef %1) #0 {
  %3 = alloca i32, align 4
  %4 = alloca ptr, align 8
  %5 = alloca ptr, align 8
  %6 = alloca ptr, align 8
  %7 = alloca i32, align 4
  %8 = alloca i32, align 4
  store ptr %0, ptr %4, align 8, !tbaa !4
  store ptr %1, ptr %5, align 8, !tbaa !57
  call void @llvm.lifetime.start.p0(i64 8, ptr %6) #12
  %9 = load ptr, ptr %4, align 8, !tbaa !4
  %10 = getelementptr inbounds nuw %struct.URLContext, ptr %9, i32 0, i32 2
  %11 = load ptr, ptr %10, align 8, !tbaa !16
  store ptr %11, ptr %6, align 8, !tbaa !22
  call void @llvm.lifetime.start.p0(i64 4, ptr %7) #12
  %12 = load ptr, ptr %5, align 8, !tbaa !57
  %13 = getelementptr inbounds nuw %struct.RTMPPacket, ptr %12, i32 0, i32 6
  %14 = load i32, ptr %13, align 8, !tbaa !97
  %15 = icmp slt i32 %14, 4
  br i1 %15, label %16, label %21

16:                                               ; preds = %2
  %17 = load ptr, ptr %4, align 8, !tbaa !4
  %18 = load ptr, ptr %5, align 8, !tbaa !57
  %19 = getelementptr inbounds nuw %struct.RTMPPacket, ptr %18, i32 0, i32 6
  %20 = load i32, ptr %19, align 8, !tbaa !97
  call void (ptr, i32, ptr, ...) @av_log(ptr noundef %17, i32 noundef 16, ptr noundef @.str.106, i32 noundef %20)
  store i32 -1094995529, ptr %3, align 4
  store i32 1, ptr %8, align 4
  br label %74

21:                                               ; preds = %2
  %22 = load ptr, ptr %6, align 8, !tbaa !22
  %23 = getelementptr inbounds nuw %struct.RTMPContext, ptr %22, i32 0, i32 6
  %24 = load i32, ptr %23, align 8, !tbaa !30
  %25 = icmp ne i32 %24, 0
  br i1 %25, label %52, label %26

26:                                               ; preds = %21
  %27 = load ptr, ptr %6, align 8, !tbaa !22
  %28 = getelementptr inbounds nuw %struct.RTMPContext, ptr %27, i32 0, i32 1
  %29 = load ptr, ptr %28, align 8, !tbaa !65
  %30 = load ptr, ptr %5, align 8, !tbaa !57
  %31 = load ptr, ptr %6, align 8, !tbaa !22
  %32 = getelementptr inbounds nuw %struct.RTMPContext, ptr %31, i32 0, i32 5
  %33 = load i32, ptr %32, align 4, !tbaa !39
  %34 = load ptr, ptr %6, align 8, !tbaa !22
  %35 = getelementptr inbounds nuw %struct.RTMPContext, ptr %34, i32 0, i32 2
  %36 = getelementptr inbounds [2 x ptr], ptr %35, i64 0, i64 1
  %37 = load ptr, ptr %6, align 8, !tbaa !22
  %38 = getelementptr inbounds nuw %struct.RTMPContext, ptr %37, i32 0, i32 3
  %39 = getelementptr inbounds [2 x i32], ptr %38, i64 0, i64 1
  %40 = call i32 @ff_rtmp_packet_write(ptr noundef %29, ptr noundef %30, i32 noundef %33, ptr noundef %36, ptr noundef %39)
  store i32 %40, ptr %7, align 4, !tbaa !11
  %41 = icmp slt i32 %40, 0
  br i1 %41, label %42, label %44

42:                                               ; preds = %26
  %43 = load i32, ptr %7, align 4, !tbaa !11
  store i32 %43, ptr %3, align 4
  store i32 1, ptr %8, align 4
  br label %74

44:                                               ; preds = %26
  %45 = load ptr, ptr %5, align 8, !tbaa !57
  %46 = getelementptr inbounds nuw %struct.RTMPPacket, ptr %45, i32 0, i32 5
  %47 = load ptr, ptr %46, align 8, !tbaa !90
  %48 = load i32, ptr %47, align 1, !tbaa !32
  %49 = call i32 @av_bswap32(i32 noundef %48) #14
  %50 = load ptr, ptr %6, align 8, !tbaa !22
  %51 = getelementptr inbounds nuw %struct.RTMPContext, ptr %50, i32 0, i32 5
  store i32 %49, ptr %51, align 4, !tbaa !39
  br label %52

52:                                               ; preds = %44, %21
  %53 = load ptr, ptr %5, align 8, !tbaa !57
  %54 = getelementptr inbounds nuw %struct.RTMPPacket, ptr %53, i32 0, i32 5
  %55 = load ptr, ptr %54, align 8, !tbaa !90
  %56 = load i32, ptr %55, align 1, !tbaa !32
  %57 = call i32 @av_bswap32(i32 noundef %56) #14
  %58 = load ptr, ptr %6, align 8, !tbaa !22
  %59 = getelementptr inbounds nuw %struct.RTMPContext, ptr %58, i32 0, i32 4
  store i32 %57, ptr %59, align 8, !tbaa !40
  %60 = load ptr, ptr %6, align 8, !tbaa !22
  %61 = getelementptr inbounds nuw %struct.RTMPContext, ptr %60, i32 0, i32 4
  %62 = load i32, ptr %61, align 8, !tbaa !40
  %63 = icmp sle i32 %62, 0
  br i1 %63, label %64, label %69

64:                                               ; preds = %52
  %65 = load ptr, ptr %4, align 8, !tbaa !4
  %66 = load ptr, ptr %6, align 8, !tbaa !22
  %67 = getelementptr inbounds nuw %struct.RTMPContext, ptr %66, i32 0, i32 4
  %68 = load i32, ptr %67, align 8, !tbaa !40
  call void (ptr, i32, ptr, ...) @av_log(ptr noundef %65, i32 noundef 16, ptr noundef @.str.107, i32 noundef %68)
  store i32 -1094995529, ptr %3, align 4
  store i32 1, ptr %8, align 4
  br label %74

69:                                               ; preds = %52
  %70 = load ptr, ptr %4, align 8, !tbaa !4
  %71 = load ptr, ptr %6, align 8, !tbaa !22
  %72 = getelementptr inbounds nuw %struct.RTMPContext, ptr %71, i32 0, i32 4
  %73 = load i32, ptr %72, align 8, !tbaa !40
  call void (ptr, i32, ptr, ...) @av_log(ptr noundef %70, i32 noundef 48, ptr noundef @.str.108, i32 noundef %73)
  store i32 0, ptr %3, align 4
  store i32 1, ptr %8, align 4
  br label %74

74:                                               ; preds = %69, %64, %42, %16
  call void @llvm.lifetime.end.p0(i64 4, ptr %7) #12
  call void @llvm.lifetime.end.p0(i64 8, ptr %6) #12
  %75 = load i32, ptr %3, align 4
  ret i32 %75
}