; Function Attrs: nounwind uwtable
define internal fastcc range(i32 -2147483648, 1) i32 @handle_chunk_size(ptr noundef %0, ptr noundef nonnull %1) unnamed_addr #0 {
  %3 = getelementptr inbounds nuw i8, ptr %0, i64 16
  %4 = load ptr, ptr %3, align 8, !tbaa !4
  %5 = getelementptr inbounds nuw i8, ptr %1, i64 32
  %6 = load i32, ptr %5, align 8, !tbaa !70
  %7 = icmp slt i32 %6, 4
  br i1 %7, label %8, label %9

8:                                                ; preds = %2
  tail call void (ptr, i32, ptr, ...) @av_log(ptr noundef nonnull %0, i32 noundef 16, ptr noundef nonnull @.str.106, i32 noundef %6) #11
  br label %34

9:                                                ; preds = %2
  %10 = getelementptr inbounds nuw i8, ptr %4, i64 48
  %11 = load i32, ptr %10, align 8, !tbaa !22
  %.not = icmp eq i32 %11, 0
  br i1 %.not, label %12, label %._crit_edge

._crit_edge:                                      ; preds = %9
  %.phi.trans.insert = getelementptr inbounds nuw i8, ptr %1, i64 24
  %.pre = load ptr, ptr %.phi.trans.insert, align 8, !tbaa !63
  br label %26

12:                                               ; preds = %9
  %13 = getelementptr inbounds nuw i8, ptr %4, i64 8
  %14 = load ptr, ptr %13, align 8, !tbaa !46
  %15 = getelementptr inbounds nuw i8, ptr %4, i64 44
  %16 = load i32, ptr %15, align 4, !tbaa !51
  %17 = getelementptr inbounds nuw i8, ptr %4, i64 24
  %18 = getelementptr inbounds nuw i8, ptr %4, i64 36
  %19 = tail call i32 @ff_rtmp_packet_write(ptr noundef %14, ptr noundef nonnull %1, i32 noundef %16, ptr noundef nonnull %17, ptr noundef nonnull %18) #11
  %20 = icmp slt i32 %19, 0
  br i1 %20, label %34, label %21

21:                                               ; preds = %12
  %22 = getelementptr inbounds nuw i8, ptr %1, i64 24
  %23 = load ptr, ptr %22, align 8, !tbaa !63
  %24 = load i32, ptr %23, align 1, !tbaa !24
  %25 = tail call i32 @llvm.bswap.i32(i32 %24)
  store i32 %25, ptr %15, align 4, !tbaa !51
  br label %26

26:                                               ; preds = %._crit_edge, %21
  %27 = phi ptr [ %.pre, %._crit_edge ], [ %23, %21 ]
  %28 = load i32, ptr %27, align 1, !tbaa !24
  %29 = tail call i32 @llvm.bswap.i32(i32 %28)
  %30 = getelementptr inbounds nuw i8, ptr %4, i64 40
  store i32 %29, ptr %30, align 8, !tbaa !52
  %31 = icmp slt i32 %29, 1
  br i1 %31, label %32, label %33

32:                                               ; preds = %26
  tail call void (ptr, i32, ptr, ...) @av_log(ptr noundef nonnull %0, i32 noundef 16, ptr noundef nonnull @.str.107, i32 noundef %29) #11
  br label %34

33:                                               ; preds = %26
  tail call void (ptr, i32, ptr, ...) @av_log(ptr noundef nonnull %0, i32 noundef 48, ptr noundef nonnull @.str.108, i32 noundef %29) #11
  br label %34

34:                                               ; preds = %12, %33, %32, %8
  %.0 = phi i32 [ -1094995529, %8 ], [ -1094995529, %32 ], [ 0, %33 ], [ %19, %12 ]
  ret i32 %.0
}